target datalayout = "e-m:e-p270:32:32-p271:32:32-p272:64:64-i64:64-i128:128-f80:128-n8:16:32:64-S128"
target triple = "x86_64-pc-linux-gnu"

%class.rcTempVector = type { %class.rcVectorBase }
%class.rcVectorBase = type { i64, i64, ptr }

; Function Attrs: mustprogress nounwind uwtable
define linkonce_odr dso_local void @_ZN12rcVectorBaseIiL11rcAllocHint1EE13destroy_rangeEll(ptr noundef nonnull align 8 dereferenceable(24) %0, i64 noundef %1, i64 noundef %2) #0 comdat align 2 {
  %4 = alloca ptr, align 8
  %5 = alloca i64, align 8
  %6 = alloca i64, align 8
  %7 = alloca i64, align 8
  store ptr %0, ptr %4, align 8
  store i64 %1, ptr %5, align 8
  store i64 %2, ptr %6, align 8
  %8 = load i64, ptr %5, align 8
  store i64 %8, ptr %7, align 8
  br label %9

9:                                                ; preds = %14, %3
  %10 = load i64, ptr %7, align 8
  %11 = load i64, ptr %6, align 8
  %12 = icmp slt i64 %10, %11
  br i1 %12, label %13, label %17

13:                                               ; preds = %9
  br label %14

14:                                               ; preds = %13
  %15 = load i64, ptr %7, align 8
  %16 = add nsw i64 %15, 1
  store i64 %16, ptr %7, align 8
  br label %9, !llvm.loop !19

17:                                               ; preds = %9
  ret void
}

; Function Attrs: mustprogress nounwind uwtable
define linkonce_odr dso_local void @_ZN12rcVectorBaseIiL11rcAllocHint1EED2Ev(ptr noundef nonnull align 8 dereferenceable(24) %0) unnamed_addr #0 comdat align 2 personality ptr @__gxx_personality_v0 {
  %2 = alloca ptr, align 8
  store ptr %0, ptr %2, align 8
  %3 = load ptr, ptr %2, align 8
  %4 = getelementptr inbounds %class.rcVectorBase, ptr %3, i32 0, i32 0
  %5 = load i64, ptr %4, align 8
  invoke void @_ZN12rcVectorBaseIiL11rcAllocHint1EE13destroy_rangeEll(ptr noundef nonnull align 8 dereferenceable(24) %3, i64 noundef 0, i64 noundef %5)
          to label %6 unwind label %10

6:                                                ; preds = %1
  %7 = getelementptr inbounds %class.rcVectorBase, ptr %3, i32 0, i32 2
  %8 = load ptr, ptr %7, align 8
  invoke void @_Z6rcFreePv(ptr noundef %8)
          to label %9 unwind label %10

9:                                                ; preds = %6
  ret void

10:                                               ; preds = %6, %1
  %11 = landingpad { ptr, i32 }
          catch ptr null
  %12 = extractvalue { ptr, i32 } %11, 0
  call void @__clang_call_terminate(ptr %12) #12
  unreachable
}

; Function Attrs: mustprogress nounwind uwtable
define linkonce_odr dso_local void @_ZN12rcVectorBaseIiL11rcAllocHint1EEC2Ev(ptr noundef nonnull align 8 dereferenceable(24) %0) unnamed_addr #0 comdat align 2 {
  %2 = alloca ptr, align 8
  store ptr %0, ptr %2, align 8
  %3 = load ptr, ptr %2, align 8
  %4 = getelementptr inbounds %class.rcVectorBase, ptr %3, i32 0, i32 0
  store i64 0, ptr %4, align 8
  %5 = getelementptr inbounds %class.rcVectorBase, ptr %3, i32 0, i32 1
  store i64 0, ptr %5, align 8
  %6 = getelementptr inbounds %class.rcVectorBase, ptr %3, i32 0, i32 2
  store ptr null, ptr %6, align 8
  ret void
}

; Function Attrs: mustprogress nounwind uwtable
define linkonce_odr dso_local void @_ZN12rcTempVectorIiED2Ev(ptr noundef nonnull align 8 dereferenceable(24) %0) unnamed_addr #0 comdat align 2 {
  %2 = alloca ptr, align 8
  store ptr %0, ptr %2, align 8
  %3 = load ptr, ptr %2, align 8
  call void @_ZN12rcVectorBaseIiL11rcAllocHint1EED2Ev(ptr noundef nonnull align 8 dereferenceable(24) %3) #11
  ret void
}

; Function Attrs: mustprogress nounwind uwtable
define linkonce_odr dso_local void @_Z13DoNotOptimizeIiEvPT_(ptr noundef %0) #0 comdat {
  %2 = alloca ptr, align 8
  store ptr %0, ptr %2, align 8
  %3 = load ptr, ptr %2, align 8
  %4 = call ptr asm sideeffect "", "=r,0,~{dirflag},~{fpsr},~{flags}"(ptr %3) #11, !srcloc !7
  store ptr %4, ptr %2, align 8
  ret void
}

; Function Attrs: mustprogress nounwind uwtable
define linkonce_odr dso_local noundef ptr @_ZN12rcVectorBaseIiL11rcAllocHint1EE4dataEv(ptr noundef nonnull align 8 dereferenceable(24) %0) #0 comdat align 2 {
  %2 = alloca ptr, align 8
  store ptr %0, ptr %2, align 8
  %3 = load ptr, ptr %2, align 8
  %4 = getelementptr inbounds %class.rcVectorBase, ptr %3, i32 0, i32 2
  %5 = load ptr, ptr %4, align 8
  ret ptr %5
}

; Function Attrs: mustprogress uwtable
define linkonce_odr dso_local void @_ZN12rcVectorBaseIiL11rcAllocHint1EE6resizeElRKi(ptr noundef nonnull align 8 dereferenceable(24) %0, i64 noundef %1, ptr noundef nonnull align 4 dereferenceable(4) %2) #4 comdat align 2 {
  %4 = alloca ptr, align 8
  %5 = alloca i64, align 8
  %6 = alloca ptr, align 8
  store ptr %0, ptr %4, align 8
  store i64 %1, ptr %5, align 8
  store ptr %2, ptr %6, align 8
  %7 = load ptr, ptr %4, align 8
  %8 = load i64, ptr %5, align 8
  %9 = load ptr, ptr %6, align 8
  call void @_ZN12rcVectorBaseIiL11rcAllocHint1EE11resize_implElPKi(ptr noundef nonnull align 8 dereferenceable(24) %7, i64 noundef %8, ptr noundef %9)
  ret void
}

; Function Attrs: mustprogress uwtable
define linkonce_odr dso_local void @_ZN12rcTempVectorIiEC2Ev(ptr noundef nonnull align 8 dereferenceable(24) %0) unnamed_addr #4 comdat align 2 {
  %2 = alloca ptr, align 8
  store ptr %0, ptr %2, align 8
  %3 = load ptr, ptr %2, align 8
  call void @_ZN12rcVectorBaseIiL11rcAllocHint1EEC2Ev(ptr noundef nonnull align 8 dereferenceable(24) %3)
  ret void
}

; Function Attrs: mustprogress uwtable
define dso_local void @_ZN18BM_rcVector_Resize4BodyEv() #4 align 2 personality ptr @__gxx_personality_v0 {
  %1 = alloca %class.rcTempVector, align 8
  %2 = alloca i32, align 4
  %3 = alloca ptr, align 8
  %4 = alloca i32, align 4
  call void @_ZN12rcTempVectorIiEC2Ev(ptr noundef nonnull align 8 dereferenceable(24) %1)
  store i32 2, ptr %2, align 4
  invoke void @_ZN12rcVectorBaseIiL11rcAllocHint1EE6resizeElRKi(ptr noundef nonnull align 8 dereferenceable(24) %1, i64 noundef 100000, ptr noundef nonnull align 4 dereferenceable(4) %2)
          to label %5 unwind label %9

5:                                                ; preds = %0
  %6 = invoke noundef ptr @_ZN12rcVectorBaseIiL11rcAllocHint1EE4dataEv(ptr noundef nonnull align 8 dereferenceable(24) %1)
          to label %7 unwind label %9

7:                                                ; preds = %5
  invoke void @_Z13DoNotOptimizeIiEvPT_(ptr noundef %6)
          to label %8 unwind label %9

8:                                                ; preds = %7
  call void @_ZN12rcTempVectorIiED2Ev(ptr noundef nonnull align 8 dereferenceable(24) %1) #11
  ret void

9:                                                ; preds = %7, %5, %0
  %10 = landingpad { ptr, i32 }
          cleanup
  %11 = extractvalue { ptr, i32 } %10, 0
  store ptr %11, ptr %3, align 8
  %12 = extractvalue { ptr, i32 } %10, 1
  store i32 %12, ptr %4, align 4
  call void @_ZN12rcTempVectorIiED2Ev(ptr noundef nonnull align 8 dereferenceable(24) %1) #11
  br label %13

13:                                               ; preds = %9
  %14 = load ptr, ptr %3, align 8
  %15 = load i32, ptr %4, align 4
  %16 = insertvalue { ptr, i32 } poison, ptr %14, 0
  %17 = insertvalue { ptr, i32 } %16, i32 %15, 1
  resume { ptr, i32 } %17
}