; Function Attrs: mustprogress uwtable
define dso_local void @_ZN18BM_rcVector_Resize4BodyEv() local_unnamed_addr #3 align 2 personality ptr @__gxx_personality_v0 {
  %1 = alloca %class.rcTempVector, align 8
  %2 = alloca i32, align 4
  call void @llvm.memset.p0.i64(ptr noundef nonnull align 8 dereferenceable(24) %1, i8 0, i64 24, i1 false)
  store i32 2, ptr %2, align 4
  invoke void @_ZN12rcVectorBaseIiL11rcAllocHint1EE11resize_implElPKi(ptr noundef nonnull align 8 dereferenceable(24) %1, i64 noundef 100000, ptr noundef nonnull align 4 dereferenceable(4) %2)
          to label %_ZN12rcVectorBaseIiL11rcAllocHint1EE6resizeElRKi.exit unwind label %10

_ZN12rcVectorBaseIiL11rcAllocHint1EE6resizeElRKi.exit: ; preds = %0
  %3 = getelementptr inbounds nuw i8, ptr %1, i64 16
  %4 = load ptr, ptr %3, align 8
  %5 = call ptr asm sideeffect "", "=r,0,~{dirflag},~{fpsr},~{flags}"(ptr %4) #16, !srcloc !7
  %6 = load ptr, ptr %3, align 8
  invoke void @_Z6rcFreePv(ptr noundef %6)
          to label %_ZN12rcTempVectorIiED2Ev.exit unwind label %7

7:                                                ; preds = %_ZN12rcVectorBaseIiL11rcAllocHint1EE6resizeElRKi.exit
  %8 = landingpad { ptr, i32 }
          catch ptr null
  %9 = extractvalue { ptr, i32 } %8, 0
  call void @__clang_call_terminate(ptr %9) #17
  unreachable

_ZN12rcTempVectorIiED2Ev.exit:                    ; preds = %_ZN12rcVectorBaseIiL11rcAllocHint1EE6resizeElRKi.exit
  ret void

10:                                               ; preds = %0
  %11 = landingpad { ptr, i32 }
          cleanup
  %12 = getelementptr inbounds nuw i8, ptr %1, i64 16
  %13 = load ptr, ptr %12, align 8
  invoke void @_Z6rcFreePv(ptr noundef %13)
          to label %_ZN12rcTempVectorIiED2Ev.exit1 unwind label %14

14:                                               ; preds = %10
  %15 = landingpad { ptr, i32 }
          catch ptr null
  %16 = extractvalue { ptr, i32 } %15, 0
  call void @__clang_call_terminate(ptr %16) #17
  unreachable

_ZN12rcTempVectorIiED2Ev.exit1:                   ; preds = %10
  resume { ptr, i32 } %11
}